target datalayout = "e-m:e-p270:32:32-p271:32:32-p272:64:64-i64:64-i128:128-f80:128-n8:16:32:64-S128"
target triple = "x86_64-pc-linux-gnu"

%struct._header_field_info = type { ptr, ptr, i32, i32, ptr, i64, ptr, i32, i32, i32, i32, ptr }
%struct._proto_node = type { ptr, ptr, ptr, ptr, ptr, ptr, ptr }
%struct.field_info = type { ptr, i32, i32, i32, i32, i32, i32, ptr, ptr, ptr, i32, i32 }

@.str.1 = private unnamed_addr constant [13 x i8] c"epan/proto.c\00", align 1
@.str.62 = private unnamed_addr constant [29 x i8] c"%s:%u: failed assertion \22%s\22\00", align 1
@.str.77 = private unnamed_addr constant [1 x i8] zeroinitializer, align 1
@.str.87 = private unnamed_addr constant [25 x i8] c"fi->hfinfo != ((void*)0)\00", align 1

; Function Attrs: null_pointer_is_valid sspstrong uwtable
define ptr @proto_item_get_display_repr(ptr noundef %0, ptr noundef %1) #0 {
  %3 = alloca ptr, align 8
  %4 = alloca ptr, align 8
  %5 = alloca ptr, align 8
  %6 = alloca ptr, align 8
  %7 = alloca i32, align 4
  store ptr %0, ptr %4, align 8
  store ptr %1, ptr %5, align 8
  call void @llvm.lifetime.start.p0(i64 8, ptr %6) #24
  %8 = load ptr, ptr %5, align 8
  %9 = icmp ne ptr %8, null
  br i1 %9, label %13, label %10

10:                                               ; preds = %2
  %11 = load ptr, ptr %4, align 8
  %12 = call noalias ptr @wmem_strdup(ptr noundef %11, ptr noundef @.str.77)
  store ptr %12, ptr %3, align 8
  store i32 1, ptr %7, align 4
  br label %41

13:                                               ; preds = %2
  %14 = load ptr, ptr %5, align 8
  %15 = getelementptr inbounds nuw %struct._proto_node, ptr %14, i32 0, i32 5
  %16 = load ptr, ptr %15, align 8
  store ptr %16, ptr %6, align 8
  %17 = load ptr, ptr %6, align 8
  %18 = icmp ne ptr %17, null
  br i1 %18, label %22, label %19

19:                                               ; preds = %13
  %20 = load ptr, ptr %4, align 8
  %21 = call noalias ptr @wmem_strdup(ptr noundef %20, ptr noundef @.str.77)
  store ptr %21, ptr %3, align 8
  store i32 1, ptr %7, align 4
  br label %41

22:                                               ; preds = %13
  %23 = load ptr, ptr %6, align 8
  %24 = getelementptr inbounds nuw %struct.field_info, ptr %23, i32 0, i32 0
  %25 = load ptr, ptr %24, align 8
  %26 = icmp ne ptr %25, null
  br i1 %26, label %27, label %28

27:                                               ; preds = %22
  br label %30

28:                                               ; preds = %22
  call void (ptr, ...) @proto_report_dissector_bug(ptr noundef @.str.62, ptr noundef @.str.1, i32 noundef 7936, ptr noundef @.str.87) #27
  unreachable

29:                                               ; No predecessors!
  br label %30

30:                                               ; preds = %29, %27
  %31 = load ptr, ptr %4, align 8
  %32 = load ptr, ptr %6, align 8
  %33 = getelementptr inbounds nuw %struct.field_info, ptr %32, i32 0, i32 9
  %34 = load ptr, ptr %33, align 8
  %35 = load ptr, ptr %6, align 8
  %36 = getelementptr inbounds nuw %struct.field_info, ptr %35, i32 0, i32 0
  %37 = load ptr, ptr %36, align 8
  %38 = getelementptr inbounds nuw %struct._header_field_info, ptr %37, i32 0, i32 3
  %39 = load i32, ptr %38, align 4
  %40 = call ptr @fvalue_to_string_repr(ptr noundef %31, ptr noundef %34, i32 noundef 0, i32 noundef %39)
  store ptr %40, ptr %3, align 8
  store i32 1, ptr %7, align 4
  br label %41

41:                                               ; preds = %30, %19, %10
  call void @llvm.lifetime.end.p0(i64 8, ptr %6) #24
  %42 = load ptr, ptr %3, align 8
  ret ptr %42
}