; Function Attrs: null_pointer_is_valid sspstrong uwtable
define ptr @proto_item_get_display_repr(ptr noundef %0, ptr noundef readonly captures(address_is_null) %1) local_unnamed_addr #0 {
  %.not = icmp eq ptr %1, null
  br i1 %.not, label %3, label %5

3:                                                ; preds = %2
  %4 = tail call noalias ptr @wmem_strdup(ptr noundef %0, ptr noundef nonnull @.str.77)
  br label %19

5:                                                ; preds = %2
  %6 = getelementptr inbounds nuw i8, ptr %1, i64 40
  %7 = load ptr, ptr %6, align 8
  %.not13 = icmp eq ptr %7, null
  br i1 %.not13, label %8, label %10

8:                                                ; preds = %5
  %9 = tail call noalias ptr @wmem_strdup(ptr noundef %0, ptr noundef nonnull @.str.77)
  br label %19

10:                                               ; preds = %5
  %11 = load ptr, ptr %7, align 8
  %.not14 = icmp eq ptr %11, null
  br i1 %.not14, label %12, label %13

12:                                               ; preds = %10
  tail call void (ptr, ...) @proto_report_dissector_bug(ptr noundef nonnull @.str.62, ptr noundef nonnull @.str.1, i32 noundef 7936, ptr noundef nonnull @.str.87) #37
  unreachable

13:                                               ; preds = %10
  %14 = getelementptr inbounds nuw i8, ptr %7, i64 48
  %15 = load ptr, ptr %14, align 8
  %16 = getelementptr inbounds nuw i8, ptr %11, i64 20
  %17 = load i32, ptr %16, align 4
  %18 = tail call ptr @fvalue_to_string_repr(ptr noundef %0, ptr noundef %15, i32 noundef 0, i32 noundef %17)
  br label %19

19:                                               ; preds = %13, %8, %3
  %.0 = phi ptr [ %18, %13 ], [ %9, %8 ], [ %4, %3 ]
  ret ptr %.0
}